target datalayout = "e-m:e-p270:32:32-p271:32:32-p272:64:64-i64:64-i128:128-f80:128-n8:16:32:64-S128"
target triple = "x86_64-pc-linux-gnu"

%"struct.nix::RestoreRegularFile" = type <{ %"struct.nix::CreateRegularFileSink", %"class.nix::AutoCloseFD", [4 x i8] }>
%"struct.nix::CreateRegularFileSink" = type { %"struct.nix::Sink" }
%"struct.nix::Sink" = type { ptr }
%"class.nix::AutoCloseFD" = type { i32 }
%struct.stat = type { i64, i64, i64, i32, i32, i32, i32, i64, i64, i64, i64, %struct.timespec, %struct.timespec, %struct.timespec, [3 x i64] }
%struct.timespec = type { i64, i64 }

@_ZTIN3nix8SysErrorE = linkonce_odr constant { ptr, ptr, ptr } { ptr getelementptr inbounds (ptr, ptr @_ZTVN10__cxxabiv120__si_class_type_infoE, i64 2), ptr @_ZTSN3nix8SysErrorE, ptr @_ZTIN3nix11SystemErrorE }, comdat, align 8
@.str.9 = private unnamed_addr constant [6 x i8] c"fstat\00", align 1
@.str.10 = private unnamed_addr constant [7 x i8] c"fchmod\00", align 1

; Function Attrs: mustprogress uwtable
define void @_ZN3nix18RestoreRegularFile12isExecutableEv(ptr noundef nonnull align 8 dereferenceable(12) %0) unnamed_addr #5 align 2 personality ptr @__gxx_personality_v0 {
  %2 = alloca ptr, align 8
  %3 = alloca %struct.stat, align 8
  %4 = alloca ptr, align 8
  %5 = alloca i32, align 4
  store ptr %0, ptr %2, align 8
  %6 = load ptr, ptr %2, align 8
  %7 = getelementptr inbounds %"struct.nix::RestoreRegularFile", ptr %6, i32 0, i32 1
  %8 = call noundef i32 @_ZNK3nix11AutoCloseFD3getEv(ptr noundef nonnull align 4 dereferenceable(4) %7)
  %9 = call i32 @fstat(i32 noundef %8, ptr noundef %3) #1
  %10 = icmp eq i32 %9, -1
  br i1 %10, label %11, label %18

11:                                               ; preds = %1
  %12 = call ptr @__cxa_allocate_exception(i64 384) #1
  invoke void @_ZN3nix8SysErrorC2IJA6_cEEEDpRKT_(ptr noundef nonnull align 8 dereferenceable(380) %12, ptr noundef nonnull align 1 dereferenceable(6) @.str.9)
          to label %13 unwind label %14

13:                                               ; preds = %11
  call void @__cxa_throw(ptr %12, ptr @_ZTIN3nix8SysErrorE, ptr @_ZN3nix8SysErrorD2Ev) #18
  unreachable

14:                                               ; preds = %11
  %15 = landingpad { ptr, i32 }
          cleanup
  %16 = extractvalue { ptr, i32 } %15, 0
  store ptr %16, ptr %4, align 8
  %17 = extractvalue { ptr, i32 } %15, 1
  store i32 %17, ptr %5, align 4
  call void @__cxa_free_exception(ptr %12) #1
  br label %34

18:                                               ; preds = %1
  %19 = getelementptr inbounds %"struct.nix::RestoreRegularFile", ptr %6, i32 0, i32 1
  %20 = call noundef i32 @_ZNK3nix11AutoCloseFD3getEv(ptr noundef nonnull align 4 dereferenceable(4) %19)
  %21 = getelementptr inbounds %struct.stat, ptr %3, i32 0, i32 3
  %22 = load i32, ptr %21, align 8
  %23 = or i32 %22, 73
  %24 = call i32 @fchmod(i32 noundef %20, i32 noundef %23) #1
  %25 = icmp eq i32 %24, -1
  br i1 %25, label %26, label %33

26:                                               ; preds = %18
  %27 = call ptr @__cxa_allocate_exception(i64 384) #1
  invoke void @_ZN3nix8SysErrorC2IJA7_cEEEDpRKT_(ptr noundef nonnull align 8 dereferenceable(380) %27, ptr noundef nonnull align 1 dereferenceable(7) @.str.10)
          to label %28 unwind label %29

28:                                               ; preds = %26
  call void @__cxa_throw(ptr %27, ptr @_ZTIN3nix8SysErrorE, ptr @_ZN3nix8SysErrorD2Ev) #18
  unreachable

29:                                               ; preds = %26
  %30 = landingpad { ptr, i32 }
          cleanup
  %31 = extractvalue { ptr, i32 } %30, 0
  store ptr %31, ptr %4, align 8
  %32 = extractvalue { ptr, i32 } %30, 1
  store i32 %32, ptr %5, align 4
  call void @__cxa_free_exception(ptr %27) #1
  br label %34

33:                                               ; preds = %18
  ret void

34:                                               ; preds = %29, %14
  %35 = load ptr, ptr %4, align 8
  %36 = load i32, ptr %5, align 4
  %37 = insertvalue { ptr, i32 } poison, ptr %35, 0
  %38 = insertvalue { ptr, i32 } %37, i32 %36, 1
  resume { ptr, i32 } %38
}