; Function Attrs: mustprogress uwtable
define void @_ZN3nix18RestoreRegularFile12isExecutableEv(ptr noundef nonnull align 8 dereferenceable(12) %0) unnamed_addr #4 align 2 personality ptr @__gxx_personality_v0 {
  %2 = alloca %struct.stat, align 8
  %3 = getelementptr inbounds i8, ptr %0, i64 8
  %4 = tail call noundef i32 @_ZNK3nix11AutoCloseFD3getEv(ptr noundef nonnull align 4 dereferenceable(4) %3)
  %5 = call i32 @fstat(i32 noundef %4, ptr noundef nonnull %2) #26
  %6 = icmp eq i32 %5, -1
  br i1 %6, label %7, label %12

7:                                                ; preds = %1
  %8 = tail call ptr @__cxa_allocate_exception(i64 384) #26
  invoke void @_ZN3nix8SysErrorC2IJA6_cEEEDpRKT_(ptr noundef nonnull align 8 dereferenceable(380) %8, ptr noundef nonnull align 1 dereferenceable(6) @.str.9)
          to label %9 unwind label %10

9:                                                ; preds = %7
  tail call void @__cxa_throw(ptr nonnull %8, ptr nonnull @_ZTIN3nix8SysErrorE, ptr nonnull @_ZN3nix8SysErrorD2Ev) #30
  unreachable

10:                                               ; preds = %7
  %11 = landingpad { ptr, i32 }
          cleanup
  br label %25

12:                                               ; preds = %1
  %13 = tail call noundef i32 @_ZNK3nix11AutoCloseFD3getEv(ptr noundef nonnull align 4 dereferenceable(4) %3)
  %14 = getelementptr inbounds i8, ptr %2, i64 24
  %15 = load i32, ptr %14, align 8
  %16 = or i32 %15, 73
  %17 = tail call i32 @fchmod(i32 noundef %13, i32 noundef %16) #26
  %18 = icmp eq i32 %17, -1
  br i1 %18, label %19, label %24

19:                                               ; preds = %12
  %20 = tail call ptr @__cxa_allocate_exception(i64 384) #26
  invoke void @_ZN3nix8SysErrorC2IJA7_cEEEDpRKT_(ptr noundef nonnull align 8 dereferenceable(380) %20, ptr noundef nonnull align 1 dereferenceable(7) @.str.10)
          to label %21 unwind label %22

21:                                               ; preds = %19
  tail call void @__cxa_throw(ptr nonnull %20, ptr nonnull @_ZTIN3nix8SysErrorE, ptr nonnull @_ZN3nix8SysErrorD2Ev) #30
  unreachable

22:                                               ; preds = %19
  %23 = landingpad { ptr, i32 }
          cleanup
  br label %25

24:                                               ; preds = %12
  ret void

25:                                               ; preds = %22, %10
  %.sink = phi ptr [ %20, %22 ], [ %8, %10 ]
  %.pn = phi { ptr, i32 } [ %23, %22 ], [ %11, %10 ]
  tail call void @__cxa_free_exception(ptr %.sink) #26
  resume { ptr, i32 } %.pn
}